; Function Attrs: mustprogress nounwind uwtable
define hidden void @_ZNK8PhaseCCP23push_if_not_bottom_typeER16Unique_Node_ListP4Node(ptr nocapture noundef nonnull readonly align 8 dereferenceable(2488) %0, ptr noundef nonnull align 8 dereferenceable(68) %1, ptr noundef %2) local_unnamed_addr #0 align 2 {
  %4 = load ptr, ptr %2, align 8
  %5 = getelementptr inbounds i8, ptr %4, i64 40
  %6 = load ptr, ptr %5, align 8
  %7 = tail call noundef ptr %6(ptr noundef nonnull align 8 dereferenceable(52) %2) #16
  %8 = getelementptr inbounds i8, ptr %0, i64 40
  %9 = load ptr, ptr %8, align 8
  %10 = getelementptr inbounds i8, ptr %2, i64 40
  %11 = load i32, ptr %10, align 8
  %12 = getelementptr inbounds i8, ptr %9, i64 16
  %13 = load ptr, ptr %12, align 8
  %14 = zext i32 %11 to i64
  %15 = getelementptr inbounds ptr, ptr %13, i64 %14
  %16 = load ptr, ptr %15, align 8
  %.not = icmp eq ptr %7, %16
  br i1 %.not, label %_ZN16Unique_Node_List4pushEP4Node.exit, label %17

17:                                               ; preds = %3
  %18 = getelementptr inbounds i8, ptr %1, i64 32
  %19 = lshr i32 %11, 5
  %20 = load i32, ptr %18, align 8
  %.not.i.i = icmp ult i32 %19, %20
  br i1 %.not.i.i, label %_ZN9VectorSet8test_setEj.exit.i, label %21

21:                                               ; preds = %17
  tail call void @_ZN9VectorSet4growEj(ptr noundef nonnull align 8 dereferenceable(32) %18, i32 noundef %19) #16
  br label %_ZN9VectorSet8test_setEj.exit.i

_ZN9VectorSet8test_setEj.exit.i:                  ; preds = %21, %17
  %22 = and i32 %11, 31
  %23 = shl nuw i32 1, %22
  %24 = getelementptr inbounds i8, ptr %1, i64 40
  %25 = load ptr, ptr %24, align 8
  %26 = zext nneg i32 %19 to i64
  %27 = getelementptr inbounds i32, ptr %25, i64 %26
  %28 = load i32, ptr %27, align 4
  %29 = or i32 %28, %23
  store i32 %29, ptr %27, align 4
  %30 = and i32 %28, %23
  %.not.i = icmp eq i32 %30, 0
  br i1 %.not.i, label %31, label %_ZN16Unique_Node_List4pushEP4Node.exit

31:                                               ; preds = %_ZN9VectorSet8test_setEj.exit.i
  %32 = getelementptr inbounds i8, ptr %1, i64 24
  %33 = load i32, ptr %32, align 8
  %34 = add i32 %33, 1
  store i32 %34, ptr %32, align 8
  %35 = getelementptr inbounds i8, ptr %1, i64 8
  %36 = load i32, ptr %35, align 8
  %.not.i.i.i = icmp ugt i32 %36, %33
  br i1 %.not.i.i.i, label %_ZN9Node_List4pushEP4Node.exit.i, label %37

37:                                               ; preds = %31
  tail call void @_ZN10Node_Array4growEj(ptr noundef nonnull align 8 dereferenceable(24) %1, i32 noundef %33) #16
  br label %_ZN9Node_List4pushEP4Node.exit.i

_ZN9Node_List4pushEP4Node.exit.i:                 ; preds = %37, %31
  %38 = getelementptr inbounds i8, ptr %1, i64 16
  %39 = load ptr, ptr %38, align 8
  %40 = zext i32 %33 to i64
  %41 = getelementptr inbounds ptr, ptr %39, i64 %40
  store ptr %2, ptr %41, align 8
  br label %_ZN16Unique_Node_List4pushEP4Node.exit

_ZN16Unique_Node_List4pushEP4Node.exit:           ; preds = %_ZN9Node_List4pushEP4Node.exit.i, %_ZN9VectorSet8test_setEj.exit.i, %3
  ret void
}